; Function Attrs: mustprogress nofree norecurse nosync nounwind willreturn memory(argmem: readwrite) uwtable
define internal noundef i32 @zoom_in_cb(ptr noundef captures(none) initializes((664, 666)) %0) #1 {
  %2 = getelementptr inbounds nuw i8, ptr %0, i64 664
  store i8 0, ptr %2, align 8, !tbaa !3
  %3 = getelementptr inbounds nuw i8, ptr %0, i64 480
  %4 = load double, ptr %3, align 8, !tbaa !30
  %5 = fmul double %4, 1.100000e+00
  store double %5, ptr %3, align 8, !tbaa !30
  %6 = getelementptr inbounds nuw i8, ptr %0, i64 665
  store i8 1, ptr %6, align 1, !tbaa !32
  ret i32 0
}